; ModuleID = '14/1121.c'
source_filename = "14/1121.c"
target datalayout = "e-m:e-p270:32:32-p271:32:32-p272:64:64-i64:64-f80:128-n8:16:32:64-S128"
target triple = "x86_64-pc-linux-gnu"

%struct.student = type { i32, i32, i32, i32 }

@.str = private unnamed_addr constant [3 x i8] c"%d\00", align 1
@.str.1 = private unnamed_addr constant [7 x i8] c"%d%d%d\00", align 1
@tem_stu = common dso_local global %struct.student zeroinitializer, align 4
@.str.2 = private unnamed_addr constant [7 x i8] c"%d %d\0A\00", align 1

; Function Attrs: noinline nounwind uwtable
define dso_local i32 @main() #0 {
  %1 = alloca i32, align 4
  %2 = alloca i32, align 4
  %3 = alloca i32, align 4
  %4 = alloca %struct.student*, align 8
  %5 = alloca i32, align 4
  store i32 0, i32* %1, align 4
  %6 = call i32 (i8*, ...) @__isoc99_scanf(i8* getelementptr inbounds ([3 x i8], [3 x i8]* @.str, i64 0, i64 0), i32* %2)
  %7 = load i32, i32* %2, align 4
  %8 = sext i32 %7 to i64
  %9 = mul i64 %8, 4
  %10 = mul i64 %9, 4
  %11 = call noalias i8* @malloc(i64 %10) #4
  %12 = bitcast i8* %11 to %struct.student*
  store %struct.student* %12, %struct.student** %4, align 8
  store i32 0, i32* %3, align 4
  br label %13

13:                                               ; preds = %52, %0
  %14 = load i32, i32* %3, align 4
  %15 = load i32, i32* %2, align 4
  %16 = icmp slt i32 %14, %15
  br i1 %16, label %17, label %55

17:                                               ; preds = %13
  %18 = load %struct.student*, %struct.student** %4, align 8
  %19 = load i32, i32* %3, align 4
  %20 = sext i32 %19 to i64
  %21 = getelementptr inbounds %struct.student, %struct.student* %18, i64 %20
  %22 = getelementptr inbounds %struct.student, %struct.student* %21, i32 0, i32 0
  %23 = load %struct.student*, %struct.student** %4, align 8
  %24 = load i32, i32* %3, align 4
  %25 = sext i32 %24 to i64
  %26 = getelementptr inbounds %struct.student, %struct.student* %23, i64 %25
  %27 = getelementptr inbounds %struct.student, %struct.student* %26, i32 0, i32 1
  %28 = load %struct.student*, %struct.student** %4, align 8
  %29 = load i32, i32* %3, align 4
  %30 = sext i32 %29 to i64
  %31 = getelementptr inbounds %struct.student, %struct.student* %28, i64 %30
  %32 = getelementptr inbounds %struct.student, %struct.student* %31, i32 0, i32 2
  %33 = call i32 (i8*, ...) @__isoc99_scanf(i8* getelementptr inbounds ([7 x i8], [7 x i8]* @.str.1, i64 0, i64 0), i32* %22, i32* %27, i32* %32)
  %34 = load %struct.student*, %struct.student** %4, align 8
  %35 = load i32, i32* %3, align 4
  %36 = sext i32 %35 to i64
  %37 = getelementptr inbounds %struct.student, %struct.student* %34, i64 %36
  %38 = getelementptr inbounds %struct.student, %struct.student* %37, i32 0, i32 1
  %39 = load i32, i32* %38, align 4
  %40 = load %struct.student*, %struct.student** %4, align 8
  %41 = load i32, i32* %3, align 4
  %42 = sext i32 %41 to i64
  %43 = getelementptr inbounds %struct.student, %struct.student* %40, i64 %42
  %44 = getelementptr inbounds %struct.student, %struct.student* %43, i32 0, i32 2
  %45 = load i32, i32* %44, align 4
  %46 = add nsw i32 %39, %45
  %47 = load %struct.student*, %struct.student** %4, align 8
  %48 = load i32, i32* %3, align 4
  %49 = sext i32 %48 to i64
  %50 = getelementptr inbounds %struct.student, %struct.student* %47, i64 %49
  %51 = getelementptr inbounds %struct.student, %struct.student* %50, i32 0, i32 3
  store i32 %46, i32* %51, align 4
  br label %52

52:                                               ; preds = %17
  %53 = load i32, i32* %3, align 4
  %54 = add nsw i32 %53, 1
  store i32 %54, i32* %3, align 4
  br label %13

55:                                               ; preds = %13
  store i32 1, i32* %5, align 4
  br label %56

56:                                               ; preds = %109, %55
  %57 = load i32, i32* %5, align 4
  %58 = icmp slt i32 %57, 4
  br i1 %58, label %59, label %112

59:                                               ; preds = %56
  store i32 0, i32* %3, align 4
  br label %60

60:                                               ; preds = %105, %59
  %61 = load i32, i32* %3, align 4
  %62 = load i32, i32* %2, align 4
  %63 = load i32, i32* %5, align 4
  %64 = sub nsw i32 %62, %63
  %65 = icmp slt i32 %61, %64
  br i1 %65, label %66, label %108

66:                                               ; preds = %60
  %67 = load %struct.student*, %struct.student** %4, align 8
  %68 = load i32, i32* %3, align 4
  %69 = sext i32 %68 to i64
  %70 = getelementptr inbounds %struct.student, %struct.student* %67, i64 %69
  %71 = getelementptr inbounds %struct.student, %struct.student* %70, i32 0, i32 3
  %72 = load i32, i32* %71, align 4
  %73 = load %struct.student*, %struct.student** %4, align 8
  %74 = load i32, i32* %3, align 4
  %75 = add nsw i32 %74, 1
  %76 = sext i32 %75 to i64
  %77 = getelementptr inbounds %struct.student, %struct.student* %73, i64 %76
  %78 = getelementptr inbounds %struct.student, %struct.student* %77, i32 0, i32 3
  %79 = load i32, i32* %78, align 4
  %80 = icmp sge i32 %72, %79
  br i1 %80, label %81, label %104

81:                                               ; preds = %66
  %82 = load %struct.student*, %struct.student** %4, align 8
  %83 = load i32, i32* %3, align 4
  %84 = add nsw i32 %83, 1
  %85 = sext i32 %84 to i64
  %86 = getelementptr inbounds %struct.student, %struct.student* %82, i64 %85
  %87 = bitcast %struct.student* %86 to i8*
  call void @llvm.memcpy.p0i8.p0i8.i64(i8* align 4 bitcast (%struct.student* @tem_stu to i8*), i8* align 4 %87, i64 16, i1 false)
  %88 = load %struct.student*, %struct.student** %4, align 8
  %89 = load i32, i32* %3, align 4
  %90 = add nsw i32 %89, 1
  %91 = sext i32 %90 to i64
  %92 = getelementptr inbounds %struct.student, %struct.student* %88, i64 %91
  %93 = load %struct.student*, %struct.student** %4, align 8
  %94 = load i32, i32* %3, align 4
  %95 = sext i32 %94 to i64
  %96 = getelementptr inbounds %struct.student, %struct.student* %93, i64 %95
  %97 = bitcast %struct.student* %92 to i8*
  %98 = bitcast %struct.student* %96 to i8*
  call void @llvm.memcpy.p0i8.p0i8.i64(i8* align 4 %97, i8* align 4 %98, i64 16, i1 false)
  %99 = load %struct.student*, %struct.student** %4, align 8
  %100 = load i32, i32* %3, align 4
  %101 = sext i32 %100 to i64
  %102 = getelementptr inbounds %struct.student, %struct.student* %99, i64 %101
  %103 = bitcast %struct.student* %102 to i8*
  call void @llvm.memcpy.p0i8.p0i8.i64(i8* align 4 %103, i8* align 4 bitcast (%struct.student* @tem_stu to i8*), i64 16, i1 false)
  br label %104

104:                                              ; preds = %81, %66
  br label %105

105:                                              ; preds = %104
  %106 = load i32, i32* %3, align 4
  %107 = add nsw i32 %106, 1
  store i32 %107, i32* %3, align 4
  br label %60

108:                                              ; preds = %60
  br label %109

109:                                              ; preds = %108
  %110 = load i32, i32* %5, align 4
  %111 = add nsw i32 %110, 1
  store i32 %111, i32* %5, align 4
  br label %56

112:                                              ; preds = %56
  %113 = load %struct.student*, %struct.student** %4, align 8
  %114 = load i32, i32* %2, align 4
  %115 = sub nsw i32 %114, 1
  %116 = sext i32 %115 to i64
  %117 = getelementptr inbounds %struct.student, %struct.student* %113, i64 %116
  %118 = getelementptr inbounds %struct.student, %struct.student* %117, i32 0, i32 0
  %119 = load i32, i32* %118, align 4
  %120 = load %struct.student*, %struct.student** %4, align 8
  %121 = load i32, i32* %2, align 4
  %122 = sub nsw i32 %121, 1
  %123 = sext i32 %122 to i64
  %124 = getelementptr inbounds %struct.student, %struct.student* %120, i64 %123
  %125 = getelementptr inbounds %struct.student, %struct.student* %124, i32 0, i32 3
  %126 = load i32, i32* %125, align 4
  %127 = call i32 (i8*, ...) @printf(i8* getelementptr inbounds ([7 x i8], [7 x i8]* @.str.2, i64 0, i64 0), i32 %119, i32 %126)
  %128 = load %struct.student*, %struct.student** %4, align 8
  %129 = load i32, i32* %2, align 4
  %130 = sub nsw i32 %129, 2
  %131 = sext i32 %130 to i64
  %132 = getelementptr inbounds %struct.student, %struct.student* %128, i64 %131
  %133 = getelementptr inbounds %struct.student, %struct.student* %132, i32 0, i32 0
  %134 = load i32, i32* %133, align 4
  %135 = load %struct.student*, %struct.student** %4, align 8
  %136 = load i32, i32* %2, align 4
  %137 = sub nsw i32 %136, 2
  %138 = sext i32 %137 to i64
  %139 = getelementptr inbounds %struct.student, %struct.student* %135, i64 %138
  %140 = getelementptr inbounds %struct.student, %struct.student* %139, i32 0, i32 3
  %141 = load i32, i32* %140, align 4
  %142 = call i32 (i8*, ...) @printf(i8* getelementptr inbounds ([7 x i8], [7 x i8]* @.str.2, i64 0, i64 0), i32 %134, i32 %141)
  %143 = load %struct.student*, %struct.student** %4, align 8
  %144 = load i32, i32* %2, align 4
  %145 = sub nsw i32 %144, 3
  %146 = sext i32 %145 to i64
  %147 = getelementptr inbounds %struct.student, %struct.student* %143, i64 %146
  %148 = getelementptr inbounds %struct.student, %struct.student* %147, i32 0, i32 0
  %149 = load i32, i32* %148, align 4
  %150 = load %struct.student*, %struct.student** %4, align 8
  %151 = load i32, i32* %2, align 4
  %152 = sub nsw i32 %151, 3
  %153 = sext i32 %152 to i64
  %154 = getelementptr inbounds %struct.student, %struct.student* %150, i64 %153
  %155 = getelementptr inbounds %struct.student, %struct.student* %154, i32 0, i32 3
  %156 = load i32, i32* %155, align 4
  %157 = call i32 (i8*, ...) @printf(i8* getelementptr inbounds ([7 x i8], [7 x i8]* @.str.2, i64 0, i64 0), i32 %149, i32 %156)
  %158 = load %struct.student*, %struct.student** %4, align 8
  %159 = bitcast %struct.student* %158 to i8*
  call void @free(i8* %159) #4
  ret i32 0
}

declare dso_local i32 @__isoc99_scanf(i8*, ...) #1

; Function Attrs: nounwind
declare dso_local noalias i8* @malloc(i64) #2

; Function Attrs: argmemonly nounwind willreturn
declare void @llvm.memcpy.p0i8.p0i8.i64(i8* noalias nocapture writeonly, i8* noalias nocapture readonly, i64, i1 immarg) #3

declare dso_local i32 @printf(i8*, ...) #1

; Function Attrs: nounwind
declare dso_local void @free(i8*) #2


!llvm.module.flags = !{!0}
!llvm.ident = !{!1}

!0 = !{i32 1, !"wchar_size", i32 4}
!1 = !{!"clang version 10.0.0-4ubuntu1 "}
